target datalayout = "e-m:e-p270:32:32-p271:32:32-p272:64:64-i64:64-i128:128-f80:128-n8:16:32:64-S128"
target triple = "x86_64-pc-linux-gnu"

%struct.xl_invalid_page = type { %struct.xl_invalid_page_key, i8 }
%struct.xl_invalid_page_key = type { %struct.RelFileLocator, i32, i32 }
%struct.RelFileLocator = type { i32, i32, i32 }
%struct.HASHCTL = type { i64, i64, i64, i64, i64, i64, ptr, ptr, ptr, ptr, ptr, ptr }

@ignore_invalid_pages = dso_local global i8 0, align 1
@invalid_page_tab = internal global ptr null, align 8
@.str = private unnamed_addr constant [41 x i8] c"WAL contains references to invalid pages\00", align 1
@.str.1 = private unnamed_addr constant [12 x i8] c"xlogutils.c\00", align 1
@.str.12 = private unnamed_addr constant [40 x i8] c"page %u of relation %s is uninitialized\00", align 1
@__func__.report_invalid_page = private unnamed_addr constant [20 x i8] c"report_invalid_page\00", align 1
@.str.13 = private unnamed_addr constant [38 x i8] c"page %u of relation %s does not exist\00", align 1
@reachedConsistency = external global i8, align 1
@__func__.log_invalid_page = private unnamed_addr constant [17 x i8] c"log_invalid_page\00", align 1
@.str.14 = private unnamed_addr constant [24 x i8] c"XLOG invalid-page table\00", align 1

; Function Attrs: nounwind uwtable
define internal void @report_invalid_page(i32 noundef %0, i64 %1, i32 %2, i32 noundef %3, i32 noundef %4, i1 noundef zeroext %5) #0 {
  %7 = alloca %struct.RelFileLocator, align 4
  %8 = alloca { i64, i32 }, align 4
  %9 = alloca i32, align 4
  %10 = alloca i32, align 4
  %11 = alloca i32, align 4
  %12 = alloca i8, align 1
  %13 = alloca ptr, align 8
  %14 = getelementptr inbounds nuw { i64, i32 }, ptr %8, i32 0, i32 0
  store i64 %1, ptr %14, align 4
  %15 = getelementptr inbounds nuw { i64, i32 }, ptr %8, i32 0, i32 1
  store i32 %2, ptr %15, align 4
  call void @llvm.memcpy.p0.p0.i64(ptr align 4 %7, ptr align 4 %8, i64 12, i1 false)
  store i32 %0, ptr %9, align 4
  store i32 %3, ptr %10, align 4
  store i32 %4, ptr %11, align 4
  %16 = zext i1 %5 to i8
  store i8 %16, ptr %12, align 1
  call void @llvm.lifetime.start.p0(i64 8, ptr %13) #10
  %17 = getelementptr inbounds nuw %struct.RelFileLocator, ptr %7, i32 0, i32 1
  %18 = load i32, ptr %17, align 4
  %19 = getelementptr inbounds nuw %struct.RelFileLocator, ptr %7, i32 0, i32 0
  %20 = load i32, ptr %19, align 4
  %21 = getelementptr inbounds nuw %struct.RelFileLocator, ptr %7, i32 0, i32 2
  %22 = load i32, ptr %21, align 4
  %23 = load i32, ptr %10, align 4
  %24 = call ptr @GetRelationPath(i32 noundef %18, i32 noundef %20, i32 noundef %22, i32 noundef -1, i32 noundef %23)
  store ptr %24, ptr %13, align 8
  %25 = load i8, ptr %12, align 1, !range !4, !noundef !5
  %26 = trunc i8 %25 to i1
  br i1 %26, label %27, label %54

27:                                               ; preds = %6
  br label %28

28:                                               ; preds = %27
  %29 = load i32, ptr %9, align 4
  %30 = call i1 @llvm.is.constant.i32(i32 %29)
  br i1 %30, label %31, label %37

31:                                               ; preds = %28
  %32 = load i32, ptr %9, align 4
  %33 = icmp sge i32 %32, 21
  br i1 %33, label %34, label %37

34:                                               ; preds = %31
  %35 = load i32, ptr %9, align 4
  %36 = call zeroext i1 @errstart_cold(i32 noundef %35, ptr noundef null) #11
  br i1 %36, label %40, label %44

37:                                               ; preds = %31, %28
  %38 = load i32, ptr %9, align 4
  %39 = call zeroext i1 @errstart(i32 noundef %38, ptr noundef null)
  br i1 %39, label %40, label %44

40:                                               ; preds = %37, %34
  %41 = load i32, ptr %11, align 4
  %42 = load ptr, ptr %13, align 8
  %43 = call i32 (ptr, ...) @errmsg_internal(ptr noundef @.str.12, i32 noundef %41, ptr noundef %42)
  call void @errfinish(ptr noundef @.str.1, i32 noundef 93, ptr noundef @__func__.report_invalid_page)
  br label %44

44:                                               ; preds = %40, %37, %34
  %45 = load i32, ptr %9, align 4
  %46 = call i1 @llvm.is.constant.i32(i32 %45)
  br i1 %46, label %47, label %51

47:                                               ; preds = %44
  %48 = load i32, ptr %9, align 4
  %49 = icmp sge i32 %48, 21
  br i1 %49, label %50, label %51

50:                                               ; preds = %47
  unreachable

51:                                               ; preds = %47, %44
  br label %52

52:                                               ; preds = %51
  br label %53

53:                                               ; preds = %52
  br label %81

54:                                               ; preds = %6
  br label %55

55:                                               ; preds = %54
  %56 = load i32, ptr %9, align 4
  %57 = call i1 @llvm.is.constant.i32(i32 %56)
  br i1 %57, label %58, label %64

58:                                               ; preds = %55
  %59 = load i32, ptr %9, align 4
  %60 = icmp sge i32 %59, 21
  br i1 %60, label %61, label %64

61:                                               ; preds = %58
  %62 = load i32, ptr %9, align 4
  %63 = call zeroext i1 @errstart_cold(i32 noundef %62, ptr noundef null) #11
  br i1 %63, label %67, label %71

64:                                               ; preds = %58, %55
  %65 = load i32, ptr %9, align 4
  %66 = call zeroext i1 @errstart(i32 noundef %65, ptr noundef null)
  br i1 %66, label %67, label %71

67:                                               ; preds = %64, %61
  %68 = load i32, ptr %11, align 4
  %69 = load ptr, ptr %13, align 8
  %70 = call i32 (ptr, ...) @errmsg_internal(ptr noundef @.str.13, i32 noundef %68, ptr noundef %69)
  call void @errfinish(ptr noundef @.str.1, i32 noundef 96, ptr noundef @__func__.report_invalid_page)
  br label %71

71:                                               ; preds = %67, %64, %61
  %72 = load i32, ptr %9, align 4
  %73 = call i1 @llvm.is.constant.i32(i32 %72)
  br i1 %73, label %74, label %78

74:                                               ; preds = %71
  %75 = load i32, ptr %9, align 4
  %76 = icmp sge i32 %75, 21
  br i1 %76, label %77, label %78

77:                                               ; preds = %74
  unreachable

78:                                               ; preds = %74, %71
  br label %79

79:                                               ; preds = %78
  br label %80

80:                                               ; preds = %79
  br label %81

81:                                               ; preds = %80, %53
  %82 = load ptr, ptr %13, align 8
  call void @pfree(ptr noundef %82)
  call void @llvm.lifetime.end.p0(i64 8, ptr %13) #10
  ret void
}

; Function Attrs: nounwind uwtable
define internal void @log_invalid_page(i64 %0, i32 %1, i32 noundef %2, i32 noundef %3, i1 noundef zeroext %4) #0 {
  %6 = alloca %struct.RelFileLocator, align 4
  %7 = alloca { i64, i32 }, align 4
  %8 = alloca i32, align 4
  %9 = alloca i32, align 4
  %10 = alloca i8, align 1
  %11 = alloca %struct.xl_invalid_page_key, align 4
  %12 = alloca ptr, align 8
  %13 = alloca i8, align 1
  %14 = alloca { i64, i32 }, align 4
  %15 = alloca { i64, i32 }, align 4
  %16 = alloca %struct.HASHCTL, align 8
  %17 = getelementptr inbounds nuw { i64, i32 }, ptr %7, i32 0, i32 0
  store i64 %0, ptr %17, align 4
  %18 = getelementptr inbounds nuw { i64, i32 }, ptr %7, i32 0, i32 1
  store i32 %1, ptr %18, align 4
  call void @llvm.memcpy.p0.p0.i64(ptr align 4 %6, ptr align 4 %7, i64 12, i1 false)
  store i32 %2, ptr %8, align 4
  store i32 %3, ptr %9, align 4
  %19 = zext i1 %4 to i8
  store i8 %19, ptr %10, align 1
  call void @llvm.lifetime.start.p0(i64 20, ptr %11) #10
  call void @llvm.lifetime.start.p0(i64 8, ptr %12) #10
  call void @llvm.lifetime.start.p0(i64 1, ptr %13) #10
  %20 = load i8, ptr @reachedConsistency, align 1, !range !4, !noundef !5
  %21 = trunc i8 %20 to i1
  br i1 %21, label %22, label %67

22:                                               ; preds = %5
  %23 = load i32, ptr %8, align 4
  %24 = load i32, ptr %9, align 4
  %25 = load i8, ptr %10, align 1, !range !4, !noundef !5
  %26 = trunc i8 %25 to i1
  call void @llvm.memcpy.p0.p0.i64(ptr align 4 %14, ptr align 4 %6, i64 12, i1 false)
  %27 = getelementptr inbounds nuw { i64, i32 }, ptr %14, i32 0, i32 0
  %28 = load i64, ptr %27, align 4
  %29 = getelementptr inbounds nuw { i64, i32 }, ptr %14, i32 0, i32 1
  %30 = load i32, ptr %29, align 4
  call void @report_invalid_page(i32 noundef 19, i64 %28, i32 %30, i32 noundef %23, i32 noundef %24, i1 noundef zeroext %26)
  br label %31

31:                                               ; preds = %22
  %32 = load i8, ptr @ignore_invalid_pages, align 1, !range !4, !noundef !5
  %33 = trunc i8 %32 to i1
  %34 = select i1 %33, i32 19, i32 23
  %35 = call i1 @llvm.is.constant.i32(i32 %34)
  br i1 %35, label %36, label %46

36:                                               ; preds = %31
  %37 = load i8, ptr @ignore_invalid_pages, align 1, !range !4, !noundef !5
  %38 = trunc i8 %37 to i1
  %39 = select i1 %38, i32 19, i32 23
  %40 = icmp sge i32 %39, 21
  br i1 %40, label %41, label %46

41:                                               ; preds = %36
  %42 = load i8, ptr @ignore_invalid_pages, align 1, !range !4, !noundef !5
  %43 = trunc i8 %42 to i1
  %44 = select i1 %43, i32 19, i32 23
  %45 = call zeroext i1 @errstart_cold(i32 noundef %44, ptr noundef null) #11
  br i1 %45, label %51, label %53

46:                                               ; preds = %36, %31
  %47 = load i8, ptr @ignore_invalid_pages, align 1, !range !4, !noundef !5
  %48 = trunc i8 %47 to i1
  %49 = select i1 %48, i32 19, i32 23
  %50 = call zeroext i1 @errstart(i32 noundef %49, ptr noundef null)
  br i1 %50, label %51, label %53

51:                                               ; preds = %46, %41
  %52 = call i32 (ptr, ...) @errmsg_internal(ptr noundef @.str)
  call void @errfinish(ptr noundef @.str.1, i32 noundef 121, ptr noundef @__func__.log_invalid_page)
  br label %53

53:                                               ; preds = %51, %46, %41
  %54 = load i8, ptr @ignore_invalid_pages, align 1, !range !4, !noundef !5
  %55 = trunc i8 %54 to i1
  %56 = select i1 %55, i32 19, i32 23
  %57 = call i1 @llvm.is.constant.i32(i32 %56)
  br i1 %57, label %58, label %64

58:                                               ; preds = %53
  %59 = load i8, ptr @ignore_invalid_pages, align 1, !range !4, !noundef !5
  %60 = trunc i8 %59 to i1
  %61 = select i1 %60, i32 19, i32 23
  %62 = icmp sge i32 %61, 21
  br i1 %62, label %63, label %64

63:                                               ; preds = %58
  unreachable

64:                                               ; preds = %58, %53
  br label %65

65:                                               ; preds = %64
  br label %66

66:                                               ; preds = %65
  br label %67

67:                                               ; preds = %66, %5
  %68 = call zeroext i1 @message_level_is_interesting(i32 noundef 14)
  br i1 %68, label %69, label %78

69:                                               ; preds = %67
  %70 = load i32, ptr %8, align 4
  %71 = load i32, ptr %9, align 4
  %72 = load i8, ptr %10, align 1, !range !4, !noundef !5
  %73 = trunc i8 %72 to i1
  call void @llvm.memcpy.p0.p0.i64(ptr align 4 %15, ptr align 4 %6, i64 12, i1 false)
  %74 = getelementptr inbounds nuw { i64, i32 }, ptr %15, i32 0, i32 0
  %75 = load i64, ptr %74, align 4
  %76 = getelementptr inbounds nuw { i64, i32 }, ptr %15, i32 0, i32 1
  %77 = load i32, ptr %76, align 4
  call void @report_invalid_page(i32 noundef 14, i64 %75, i32 %77, i32 noundef %70, i32 noundef %71, i1 noundef zeroext %73)
  br label %78

78:                                               ; preds = %69, %67
  %79 = load ptr, ptr @invalid_page_tab, align 8
  %80 = icmp eq ptr %79, null
  br i1 %80, label %81, label %85

81:                                               ; preds = %78
  call void @llvm.lifetime.start.p0(i64 96, ptr %16) #10
  %82 = getelementptr inbounds nuw %struct.HASHCTL, ptr %16, i32 0, i32 4
  store i64 20, ptr %82, align 8
  %83 = getelementptr inbounds nuw %struct.HASHCTL, ptr %16, i32 0, i32 5
  store i64 24, ptr %83, align 8
  %84 = call ptr @hash_create(ptr noundef @.str.14, i64 noundef 100, ptr noundef %16, i32 noundef 40)
  store ptr %84, ptr @invalid_page_tab, align 8
  call void @llvm.lifetime.end.p0(i64 96, ptr %16) #10
  br label %85

85:                                               ; preds = %81, %78
  %86 = getelementptr inbounds nuw %struct.xl_invalid_page_key, ptr %11, i32 0, i32 0
  call void @llvm.memcpy.p0.p0.i64(ptr align 4 %86, ptr align 4 %6, i64 12, i1 false)
  %87 = load i32, ptr %8, align 4
  %88 = getelementptr inbounds nuw %struct.xl_invalid_page_key, ptr %11, i32 0, i32 1
  store i32 %87, ptr %88, align 4
  %89 = load i32, ptr %9, align 4
  %90 = getelementptr inbounds nuw %struct.xl_invalid_page_key, ptr %11, i32 0, i32 2
  store i32 %89, ptr %90, align 4
  %91 = load ptr, ptr @invalid_page_tab, align 8
  %92 = call ptr @hash_search(ptr noundef %91, ptr noundef %11, i32 noundef 1, ptr noundef %13)
  store ptr %92, ptr %12, align 8
  %93 = load i8, ptr %13, align 1, !range !4, !noundef !5
  %94 = trunc i8 %93 to i1
  br i1 %94, label %101, label %95

95:                                               ; preds = %85
  %96 = load i8, ptr %10, align 1, !range !4, !noundef !5
  %97 = trunc i8 %96 to i1
  %98 = load ptr, ptr %12, align 8
  %99 = getelementptr inbounds nuw %struct.xl_invalid_page, ptr %98, i32 0, i32 1
  %100 = zext i1 %97 to i8
  store i8 %100, ptr %99, align 4
  br label %102

101:                                              ; preds = %85
  br label %102

102:                                              ; preds = %101, %95
  call void @llvm.lifetime.end.p0(i64 1, ptr %13) #10
  call void @llvm.lifetime.end.p0(i64 8, ptr %12) #10
  call void @llvm.lifetime.end.p0(i64 20, ptr %11) #10
  ret void
}