; Function Attrs: nounwind uwtable
define internal fastcc void @log_invalid_page(i64 %0, i32 %1, i32 noundef %2, i32 noundef %3, i1 noundef zeroext %4) unnamed_addr #0 {
  %6 = alloca %struct.xl_invalid_page_key, align 8
  %7 = alloca i8, align 1
  %8 = alloca %struct.HASHCTL, align 8
  %9 = zext i1 %4 to i8
  call void @llvm.lifetime.start.p0(i64 20, ptr nonnull %6) #8
  call void @llvm.lifetime.start.p0(i64 1, ptr nonnull %7) #8
  %10 = load i8, ptr @reachedConsistency, align 1, !range !4, !noundef !5
  %11 = trunc nuw i8 %10 to i1
  br i1 %11, label %12, label %22

12:                                               ; preds = %5
  %.sroa.025.0.extract.trunc.i = trunc i64 %0 to i32
  %.sroa.226.0.extract.shift.i = lshr i64 %0, 32
  %.sroa.226.0.extract.trunc.i = trunc nuw i64 %.sroa.226.0.extract.shift.i to i32
  %13 = tail call ptr @GetRelationPath(i32 noundef %.sroa.226.0.extract.trunc.i, i32 noundef %.sroa.025.0.extract.trunc.i, i32 noundef %1, i32 noundef -1, i32 noundef %2) #8
  %14 = tail call zeroext i1 @errstart(i32 noundef 19, ptr noundef null) #8
  br i1 %14, label %.sink.split.i, label %report_invalid_page.exit

.sink.split.i:                                    ; preds = %12
  %..i = select i1 %4, i32 93, i32 96
  %.str.12..str.13.i = select i1 %4, ptr @.str.12, ptr @.str.13
  %15 = tail call i32 (ptr, ...) @errmsg_internal(ptr noundef nonnull %.str.12..str.13.i, i32 noundef %3, ptr noundef %13) #8
  tail call void @errfinish(ptr noundef nonnull @.str.1, i32 noundef %..i, ptr noundef nonnull @__func__.report_invalid_page) #8
  br label %report_invalid_page.exit

report_invalid_page.exit:                         ; preds = %12, %.sink.split.i
  tail call void @pfree(ptr noundef %13) #8
  %16 = load i8, ptr @ignore_invalid_pages, align 1, !range !4, !noundef !5
  %17 = trunc nuw i8 %16 to i1
  %18 = select i1 %17, i32 19, i32 23
  %19 = tail call zeroext i1 @errstart(i32 noundef %18, ptr noundef null) #8
  br i1 %19, label %20, label %22

20:                                               ; preds = %report_invalid_page.exit
  %21 = tail call i32 (ptr, ...) @errmsg_internal(ptr noundef nonnull @.str) #8
  tail call void @errfinish(ptr noundef nonnull @.str.1, i32 noundef 121, ptr noundef nonnull @__func__.log_invalid_page) #8
  br label %22

22:                                               ; preds = %report_invalid_page.exit, %20, %5
  %23 = tail call zeroext i1 @message_level_is_interesting(i32 noundef 14) #8
  br i1 %23, label %24, label %28

24:                                               ; preds = %22
  %.sroa.025.0.extract.trunc.i15 = trunc i64 %0 to i32
  %.sroa.226.0.extract.shift.i16 = lshr i64 %0, 32
  %.sroa.226.0.extract.trunc.i17 = trunc nuw i64 %.sroa.226.0.extract.shift.i16 to i32
  %25 = tail call ptr @GetRelationPath(i32 noundef %.sroa.226.0.extract.trunc.i17, i32 noundef %.sroa.025.0.extract.trunc.i15, i32 noundef %1, i32 noundef -1, i32 noundef %2) #8
  %26 = tail call zeroext i1 @errstart(i32 noundef 14, ptr noundef null) #8
  br i1 %26, label %.sink.split.i18, label %report_invalid_page.exit21

.sink.split.i18:                                  ; preds = %24
  %..i19 = select i1 %4, i32 93, i32 96
  %.str.12..str.13.i20 = select i1 %4, ptr @.str.12, ptr @.str.13
  %27 = tail call i32 (ptr, ...) @errmsg_internal(ptr noundef nonnull %.str.12..str.13.i20, i32 noundef %3, ptr noundef %25) #8
  tail call void @errfinish(ptr noundef nonnull @.str.1, i32 noundef %..i19, ptr noundef nonnull @__func__.report_invalid_page) #8
  br label %report_invalid_page.exit21

report_invalid_page.exit21:                       ; preds = %24, %.sink.split.i18
  tail call void @pfree(ptr noundef %25) #8
  br label %28

28:                                               ; preds = %report_invalid_page.exit21, %22
  %29 = load ptr, ptr @invalid_page_tab, align 8
  %30 = icmp eq ptr %29, null
  br i1 %30, label %31, label %35

31:                                               ; preds = %28
  call void @llvm.lifetime.start.p0(i64 96, ptr nonnull %8) #8
  %32 = getelementptr inbounds nuw i8, ptr %8, i64 32
  store i64 20, ptr %32, align 8
  %33 = getelementptr inbounds nuw i8, ptr %8, i64 40
  store i64 24, ptr %33, align 8
  %34 = call ptr @hash_create(ptr noundef nonnull @.str.14, i64 noundef 100, ptr noundef nonnull %8, i32 noundef 40) #8
  store ptr %34, ptr @invalid_page_tab, align 8
  call void @llvm.lifetime.end.p0(i64 96, ptr nonnull %8) #8
  br label %35

35:                                               ; preds = %31, %28
  %36 = phi ptr [ %34, %31 ], [ %29, %28 ]
  store i64 %0, ptr %6, align 8
  %.sroa.4.0..sroa_idx = getelementptr inbounds nuw i8, ptr %6, i64 8
  store i32 %1, ptr %.sroa.4.0..sroa_idx, align 8
  %37 = getelementptr inbounds nuw i8, ptr %6, i64 12
  store i32 %2, ptr %37, align 4
  %38 = getelementptr inbounds nuw i8, ptr %6, i64 16
  store i32 %3, ptr %38, align 8
  %39 = call ptr @hash_search(ptr noundef %36, ptr noundef nonnull %6, i32 noundef 1, ptr noundef nonnull %7) #8
  %40 = load i8, ptr %7, align 1, !range !4, !noundef !5
  %41 = trunc nuw i8 %40 to i1
  br i1 %41, label %44, label %42

42:                                               ; preds = %35
  %43 = getelementptr inbounds nuw i8, ptr %39, i64 20
  store i8 %9, ptr %43, align 4
  br label %44

44:                                               ; preds = %35, %42
  call void @llvm.lifetime.end.p0(i64 1, ptr nonnull %7) #8
  call void @llvm.lifetime.end.p0(i64 20, ptr nonnull %6) #8
  ret void
}